target datalayout = "e-m:e-p270:32:32-p271:32:32-p272:64:64-i64:64-i128:128-f80:128-n8:16:32:64-S128"
target triple = "x86_64-pc-linux-gnu"

%struct.SlruSharedData = type { i32, ptr, ptr, ptr, ptr, ptr, ptr, ptr, ptr, ptr, i32, %struct.pg_atomic_uint64, i32 }
%struct.pg_atomic_uint64 = type { i64 }
%struct.SlruCtlData = type { ptr, i16, i8, i32, ptr, [64 x i8] }

; Function Attrs: inlinehint nounwind uwtable
define internal i64 @pg_atomic_read_u64_impl(ptr noundef %0) #4 {
  %2 = alloca ptr, align 8
  store ptr %0, ptr %2, align 8
  %3 = load ptr, ptr %2, align 8
  %4 = getelementptr inbounds nuw %struct.pg_atomic_uint64, ptr %3, i32 0, i32 0
  %5 = load volatile i64, ptr %4, align 8
  ret i64 %5
}

; Function Attrs: inlinehint nounwind uwtable
define internal i64 @pg_atomic_read_u64(ptr noundef %0) #4 {
  %2 = alloca ptr, align 8
  store ptr %0, ptr %2, align 8
  %3 = load ptr, ptr %2, align 8
  %4 = call i64 @pg_atomic_read_u64_impl(ptr noundef %3)
  ret i64 %4
}

; Function Attrs: nounwind uwtable
define internal i32 @SlruSelectLRUPage(ptr noundef %0, i64 noundef %1) #0 {
  %3 = alloca i32, align 4
  %4 = alloca ptr, align 8
  %5 = alloca i64, align 8
  %6 = alloca ptr, align 8
  %7 = alloca i32, align 4
  %8 = alloca i32, align 4
  %9 = alloca i32, align 4
  %10 = alloca i64, align 8
  %11 = alloca i32, align 4
  %12 = alloca i32, align 4
  %13 = alloca i64, align 8
  %14 = alloca i32, align 4
  %15 = alloca i32, align 4
  %16 = alloca i32, align 4
  %17 = alloca i32, align 4
  %18 = alloca i32, align 4
  %19 = alloca i32, align 4
  %20 = alloca i32, align 4
  %21 = alloca i64, align 8
  store ptr %0, ptr %4, align 8
  store i64 %1, ptr %5, align 8
  call void @llvm.lifetime.start.p0(i64 8, ptr %6) #9
  %22 = load ptr, ptr %4, align 8
  %23 = getelementptr inbounds nuw %struct.SlruCtlData, ptr %22, i32 0, i32 0
  %24 = load ptr, ptr %23, align 8
  store ptr %24, ptr %6, align 8
  br label %25

25:                                               ; preds = %210, %208, %2
  call void @llvm.lifetime.start.p0(i64 4, ptr %7) #9
  call void @llvm.lifetime.start.p0(i64 4, ptr %8) #9
  store i32 0, ptr %8, align 4
  call void @llvm.lifetime.start.p0(i64 4, ptr %9) #9
  store i32 -1, ptr %9, align 4
  call void @llvm.lifetime.start.p0(i64 8, ptr %10) #9
  store i64 0, ptr %10, align 8
  call void @llvm.lifetime.start.p0(i64 4, ptr %11) #9
  store i32 0, ptr %11, align 4
  call void @llvm.lifetime.start.p0(i64 4, ptr %12) #9
  store i32 -1, ptr %12, align 4
  call void @llvm.lifetime.start.p0(i64 8, ptr %13) #9
  store i64 0, ptr %13, align 8
  call void @llvm.lifetime.start.p0(i64 4, ptr %14) #9
  %26 = load i64, ptr %5, align 8
  %27 = load ptr, ptr %4, align 8
  %28 = getelementptr inbounds nuw %struct.SlruCtlData, ptr %27, i32 0, i32 1
  %29 = load i16, ptr %28, align 8
  %30 = zext i16 %29 to i64
  %31 = srem i64 %26, %30
  %32 = trunc i64 %31 to i32
  store i32 %32, ptr %14, align 4
  call void @llvm.lifetime.start.p0(i64 4, ptr %15) #9
  %33 = load i32, ptr %14, align 4
  %34 = mul i32 %33, 16
  store i32 %34, ptr %15, align 4
  call void @llvm.lifetime.start.p0(i64 4, ptr %16) #9
  %35 = load i32, ptr %15, align 4
  %36 = add i32 %35, 16
  store i32 %36, ptr %16, align 4
  call void @llvm.lifetime.start.p0(i64 4, ptr %17) #9
  %37 = load i32, ptr %15, align 4
  store i32 %37, ptr %17, align 4
  br label %38

38:                                               ; preds = %65, %25
  %39 = load i32, ptr %17, align 4
  %40 = load i32, ptr %16, align 4
  %41 = icmp slt i32 %39, %40
  br i1 %41, label %43, label %42

42:                                               ; preds = %38
  store i32 4, ptr %18, align 4
  br label %68

43:                                               ; preds = %38
  %44 = load ptr, ptr %6, align 8
  %45 = getelementptr inbounds nuw %struct.SlruSharedData, ptr %44, i32 0, i32 2
  %46 = load ptr, ptr %45, align 8
  %47 = load i32, ptr %17, align 4
  %48 = sext i32 %47 to i64
  %49 = getelementptr inbounds i32, ptr %46, i64 %48
  %50 = load i32, ptr %49, align 4
  %51 = icmp ne i32 %50, 0
  br i1 %51, label %52, label %64

52:                                               ; preds = %43
  %53 = load ptr, ptr %6, align 8
  %54 = getelementptr inbounds nuw %struct.SlruSharedData, ptr %53, i32 0, i32 4
  %55 = load ptr, ptr %54, align 8
  %56 = load i32, ptr %17, align 4
  %57 = sext i32 %56 to i64
  %58 = getelementptr inbounds i64, ptr %55, i64 %57
  %59 = load i64, ptr %58, align 8
  %60 = load i64, ptr %5, align 8
  %61 = icmp eq i64 %59, %60
  br i1 %61, label %62, label %64

62:                                               ; preds = %52
  %63 = load i32, ptr %17, align 4
  store i32 %63, ptr %3, align 4
  store i32 1, ptr %18, align 4
  br label %68

64:                                               ; preds = %52, %43
  br label %65

65:                                               ; preds = %64
  %66 = load i32, ptr %17, align 4
  %67 = add i32 %66, 1
  store i32 %67, ptr %17, align 4
  br label %38, !llvm.loop !10

68:                                               ; preds = %62, %42
  call void @llvm.lifetime.end.p0(i64 4, ptr %17) #9
  %69 = load i32, ptr %18, align 4
  switch i32 %69, label %208 [
    i32 4, label %70
  ]

70:                                               ; preds = %68
  %71 = load ptr, ptr %6, align 8
  %72 = getelementptr inbounds nuw %struct.SlruSharedData, ptr %71, i32 0, i32 8
  %73 = load ptr, ptr %72, align 8
  %74 = load i32, ptr %14, align 4
  %75 = sext i32 %74 to i64
  %76 = getelementptr inbounds i32, ptr %73, i64 %75
  %77 = load i32, ptr %76, align 4
  %78 = add i32 %77, 1
  store i32 %78, ptr %76, align 4
  store i32 %77, ptr %7, align 4
  call void @llvm.lifetime.start.p0(i64 4, ptr %19) #9
  %79 = load i32, ptr %15, align 4
  store i32 %79, ptr %19, align 4
  br label %80

80:                                               ; preds = %183, %70
  %81 = load i32, ptr %19, align 4
  %82 = load i32, ptr %16, align 4
  %83 = icmp slt i32 %81, %82
  br i1 %83, label %85, label %84

84:                                               ; preds = %80
  store i32 7, ptr %18, align 4
  br label %186

85:                                               ; preds = %80
  call void @llvm.lifetime.start.p0(i64 4, ptr %20) #9
  call void @llvm.lifetime.start.p0(i64 8, ptr %21) #9
  %86 = load ptr, ptr %6, align 8
  %87 = getelementptr inbounds nuw %struct.SlruSharedData, ptr %86, i32 0, i32 2
  %88 = load ptr, ptr %87, align 8
  %89 = load i32, ptr %19, align 4
  %90 = sext i32 %89 to i64
  %91 = getelementptr inbounds i32, ptr %88, i64 %90
  %92 = load i32, ptr %91, align 4
  %93 = icmp eq i32 %92, 0
  br i1 %93, label %94, label %96

94:                                               ; preds = %85
  %95 = load i32, ptr %19, align 4
  store i32 %95, ptr %3, align 4
  store i32 1, ptr %18, align 4
  br label %180

96:                                               ; preds = %85
  %97 = load i32, ptr %7, align 4
  %98 = load ptr, ptr %6, align 8
  %99 = getelementptr inbounds nuw %struct.SlruSharedData, ptr %98, i32 0, i32 5
  %100 = load ptr, ptr %99, align 8
  %101 = load i32, ptr %19, align 4
  %102 = sext i32 %101 to i64
  %103 = getelementptr inbounds i32, ptr %100, i64 %102
  %104 = load i32, ptr %103, align 4
  %105 = sub i32 %97, %104
  store i32 %105, ptr %20, align 4
  %106 = load i32, ptr %20, align 4
  %107 = icmp slt i32 %106, 0
  br i1 %107, label %108, label %116

108:                                              ; preds = %96
  %109 = load i32, ptr %7, align 4
  %110 = load ptr, ptr %6, align 8
  %111 = getelementptr inbounds nuw %struct.SlruSharedData, ptr %110, i32 0, i32 5
  %112 = load ptr, ptr %111, align 8
  %113 = load i32, ptr %19, align 4
  %114 = sext i32 %113 to i64
  %115 = getelementptr inbounds i32, ptr %112, i64 %114
  store i32 %109, ptr %115, align 4
  store i32 0, ptr %20, align 4
  br label %116

116:                                              ; preds = %108, %96
  %117 = load ptr, ptr %6, align 8
  %118 = getelementptr inbounds nuw %struct.SlruSharedData, ptr %117, i32 0, i32 4
  %119 = load ptr, ptr %118, align 8
  %120 = load i32, ptr %19, align 4
  %121 = sext i32 %120 to i64
  %122 = getelementptr inbounds i64, ptr %119, i64 %121
  %123 = load i64, ptr %122, align 8
  store i64 %123, ptr %21, align 8
  %124 = load i64, ptr %21, align 8
  %125 = load ptr, ptr %6, align 8
  %126 = getelementptr inbounds nuw %struct.SlruSharedData, ptr %125, i32 0, i32 11
  %127 = call i64 @pg_atomic_read_u64(ptr noundef %126)
  %128 = icmp eq i64 %124, %127
  br i1 %128, label %129, label %130

129:                                              ; preds = %116
  store i32 9, ptr %18, align 4
  br label %180

130:                                              ; preds = %116
  %131 = load ptr, ptr %6, align 8
  %132 = getelementptr inbounds nuw %struct.SlruSharedData, ptr %131, i32 0, i32 2
  %133 = load ptr, ptr %132, align 8
  %134 = load i32, ptr %19, align 4
  %135 = sext i32 %134 to i64
  %136 = getelementptr inbounds i32, ptr %133, i64 %135
  %137 = load i32, ptr %136, align 4
  %138 = icmp eq i32 %137, 2
  br i1 %138, label %139, label %159

139:                                              ; preds = %130
  %140 = load i32, ptr %20, align 4
  %141 = load i32, ptr %9, align 4
  %142 = icmp sgt i32 %140, %141
  br i1 %142, label %154, label %143

143:                                              ; preds = %139
  %144 = load i32, ptr %20, align 4
  %145 = load i32, ptr %9, align 4
  %146 = icmp eq i32 %144, %145
  br i1 %146, label %147, label %158

147:                                              ; preds = %143
  %148 = load ptr, ptr %4, align 8
  %149 = getelementptr inbounds nuw %struct.SlruCtlData, ptr %148, i32 0, i32 4
  %150 = load ptr, ptr %149, align 8
  %151 = load i64, ptr %21, align 8
  %152 = load i64, ptr %10, align 8
  %153 = call zeroext i1 %150(i64 noundef %151, i64 noundef %152)
  br i1 %153, label %154, label %158

154:                                              ; preds = %147, %139
  %155 = load i32, ptr %19, align 4
  store i32 %155, ptr %8, align 4
  %156 = load i32, ptr %20, align 4
  store i32 %156, ptr %9, align 4
  %157 = load i64, ptr %21, align 8
  store i64 %157, ptr %10, align 8
  br label %158

158:                                              ; preds = %154, %147, %143
  br label %179

159:                                              ; preds = %130
  %160 = load i32, ptr %20, align 4
  %161 = load i32, ptr %12, align 4
  %162 = icmp sgt i32 %160, %161
  br i1 %162, label %174, label %163

163:                                              ; preds = %159
  %164 = load i32, ptr %20, align 4
  %165 = load i32, ptr %12, align 4
  %166 = icmp eq i32 %164, %165
  br i1 %166, label %167, label %178

167:                                              ; preds = %163
  %168 = load ptr, ptr %4, align 8
  %169 = getelementptr inbounds nuw %struct.SlruCtlData, ptr %168, i32 0, i32 4
  %170 = load ptr, ptr %169, align 8
  %171 = load i64, ptr %21, align 8
  %172 = load i64, ptr %13, align 8
  %173 = call zeroext i1 %170(i64 noundef %171, i64 noundef %172)
  br i1 %173, label %174, label %178

174:                                              ; preds = %167, %159
  %175 = load i32, ptr %19, align 4
  store i32 %175, ptr %11, align 4
  %176 = load i32, ptr %20, align 4
  store i32 %176, ptr %12, align 4
  %177 = load i64, ptr %21, align 8
  store i64 %177, ptr %13, align 8
  br label %178

178:                                              ; preds = %174, %167, %163
  br label %179

179:                                              ; preds = %178, %158
  store i32 0, ptr %18, align 4
  br label %180

180:                                              ; preds = %179, %129, %94
  call void @llvm.lifetime.end.p0(i64 8, ptr %21) #9
  call void @llvm.lifetime.end.p0(i64 4, ptr %20) #9
  %181 = load i32, ptr %18, align 4
  switch i32 %181, label %186 [
    i32 0, label %182
    i32 9, label %183
  ]

182:                                              ; preds = %180
  br label %183

183:                                              ; preds = %182, %180
  %184 = load i32, ptr %19, align 4
  %185 = add i32 %184, 1
  store i32 %185, ptr %19, align 4
  br label %80, !llvm.loop !11

186:                                              ; preds = %180, %84
  call void @llvm.lifetime.end.p0(i64 4, ptr %19) #9
  %187 = load i32, ptr %18, align 4
  switch i32 %187, label %208 [
    i32 7, label %188
  ]

188:                                              ; preds = %186
  %189 = load i32, ptr %9, align 4
  %190 = icmp slt i32 %189, 0
  br i1 %190, label %191, label %194

191:                                              ; preds = %188
  %192 = load ptr, ptr %4, align 8
  %193 = load i32, ptr %11, align 4
  call void @SimpleLruWaitIO(ptr noundef %192, i32 noundef %193)
  store i32 3, ptr %18, align 4
  br label %208

194:                                              ; preds = %188
  %195 = load ptr, ptr %6, align 8
  %196 = getelementptr inbounds nuw %struct.SlruSharedData, ptr %195, i32 0, i32 3
  %197 = load ptr, ptr %196, align 8
  %198 = load i32, ptr %8, align 4
  %199 = sext i32 %198 to i64
  %200 = getelementptr inbounds i8, ptr %197, i64 %199
  %201 = load i8, ptr %200, align 1, !range !4, !noundef !5
  %202 = trunc i8 %201 to i1
  br i1 %202, label %205, label %203

203:                                              ; preds = %194
  %204 = load i32, ptr %8, align 4
  store i32 %204, ptr %3, align 4
  store i32 1, ptr %18, align 4
  br label %208

205:                                              ; preds = %194
  %206 = load ptr, ptr %4, align 8
  %207 = load i32, ptr %8, align 4
  call void @SlruInternalWritePage(ptr noundef %206, i32 noundef %207, ptr noundef null)
  store i32 0, ptr %18, align 4
  br label %208

208:                                              ; preds = %205, %203, %191, %186, %68
  call void @llvm.lifetime.end.p0(i64 4, ptr %16) #9
  call void @llvm.lifetime.end.p0(i64 4, ptr %15) #9
  call void @llvm.lifetime.end.p0(i64 4, ptr %14) #9
  call void @llvm.lifetime.end.p0(i64 8, ptr %13) #9
  call void @llvm.lifetime.end.p0(i64 4, ptr %12) #9
  call void @llvm.lifetime.end.p0(i64 4, ptr %11) #9
  call void @llvm.lifetime.end.p0(i64 8, ptr %10) #9
  call void @llvm.lifetime.end.p0(i64 4, ptr %9) #9
  call void @llvm.lifetime.end.p0(i64 4, ptr %8) #9
  call void @llvm.lifetime.end.p0(i64 4, ptr %7) #9
  %209 = load i32, ptr %18, align 4
  switch i32 %209, label %211 [
    i32 0, label %210
    i32 3, label %25
  ]

210:                                              ; preds = %208
  br label %25

211:                                              ; preds = %208
  call void @llvm.lifetime.end.p0(i64 8, ptr %6) #9
  %212 = load i32, ptr %3, align 4
  ret i32 %212
}