; Function Attrs: nounwind uwtable
define internal fastcc i32 @SlruSelectLRUPage(ptr noundef %0, i64 noundef %1) unnamed_addr #3 {
  %3 = load ptr, ptr %0, align 8
  %4 = getelementptr inbounds nuw i8, ptr %0, i64 8
  %5 = getelementptr inbounds nuw i8, ptr %3, i64 16
  %6 = getelementptr inbounds nuw i8, ptr %3, i64 32
  %7 = getelementptr inbounds nuw i8, ptr %3, i64 64
  %8 = getelementptr inbounds nuw i8, ptr %3, i64 40
  %9 = getelementptr inbounds nuw i8, ptr %3, i64 88
  %10 = getelementptr inbounds nuw i8, ptr %0, i64 16
  %11 = getelementptr inbounds nuw i8, ptr %3, i64 24
  br label %12

12:                                               ; preds = %.backedge, %2
  %13 = load i16, ptr %4, align 8
  %14 = zext i16 %13 to i64
  %15 = srem i64 %1, %14
  %16 = trunc nsw i64 %15 to i32
  %17 = shl nsw i32 %16, 4
  %18 = add nsw i32 %17, 16
  %19 = load ptr, ptr %5, align 8
  %20 = sext i32 %17 to i64
  %21 = sext i32 %18 to i64
  br label %22

22:                                               ; preds = %12, %30
  %indvars.iv = phi i64 [ %20, %12 ], [ %indvars.iv.next, %30 ]
  %23 = getelementptr inbounds i32, ptr %19, i64 %indvars.iv
  %24 = load i32, ptr %23, align 4
  %.not = icmp eq i32 %24, 0
  br i1 %.not, label %30, label %25

25:                                               ; preds = %22
  %26 = load ptr, ptr %6, align 8
  %27 = getelementptr inbounds i64, ptr %26, i64 %indvars.iv
  %28 = load i64, ptr %27, align 8
  %29 = icmp eq i64 %28, %1
  br i1 %29, label %.thread.loopexit150, label %30

30:                                               ; preds = %22, %25
  %indvars.iv.next = add nsw i64 %indvars.iv, 1
  %.not100 = icmp slt i64 %indvars.iv.next, %21
  br i1 %.not100, label %22, label %31, !llvm.loop !9

31:                                               ; preds = %30
  %32 = load ptr, ptr %7, align 8
  %33 = shl nsw i64 %15, 2
  %34 = getelementptr inbounds i8, ptr %32, i64 %33
  %35 = load i32, ptr %34, align 4
  %36 = add i32 %35, 1
  store i32 %36, ptr %34, align 4
  br label %37

37:                                               ; preds = %31, %78
  %indvars.iv155 = phi i64 [ %20, %31 ], [ %indvars.iv.next156, %78 ]
  %.077148 = phi i32 [ 0, %31 ], [ %.279.ph, %78 ]
  %.081147 = phi i32 [ -1, %31 ], [ %.283.ph, %78 ]
  %.085146 = phi i64 [ 0, %31 ], [ %.186.ph, %78 ]
  %.088145 = phi i64 [ 0, %31 ], [ %.189.ph, %78 ]
  %.091144 = phi i32 [ -1, %31 ], [ %.192.ph, %78 ]
  %.094143 = phi i32 [ 0, %31 ], [ %.296.ph, %78 ]
  %38 = load ptr, ptr %5, align 8
  %39 = getelementptr inbounds i32, ptr %38, i64 %indvars.iv155
  %40 = load i32, ptr %39, align 4
  %41 = icmp eq i32 %40, 0
  br i1 %41, label %.thread.loopexit, label %42

42:                                               ; preds = %37
  %43 = load ptr, ptr %8, align 8
  %44 = getelementptr inbounds i32, ptr %43, i64 %indvars.iv155
  %45 = load i32, ptr %44, align 4
  %46 = sub i32 %35, %45
  %47 = icmp slt i32 %46, 0
  br i1 %47, label %48, label %49

48:                                               ; preds = %42
  store i32 %35, ptr %44, align 4
  br label %49

49:                                               ; preds = %48, %42
  %.070 = phi i32 [ 0, %48 ], [ %46, %42 ]
  %50 = load ptr, ptr %6, align 8
  %51 = getelementptr inbounds i64, ptr %50, i64 %indvars.iv155
  %52 = load i64, ptr %51, align 8
  %53 = load volatile i64, ptr %9, align 8
  %54 = icmp eq i64 %52, %53
  br i1 %54, label %78, label %55

55:                                               ; preds = %49
  %56 = load ptr, ptr %5, align 8
  %57 = getelementptr inbounds i32, ptr %56, i64 %indvars.iv155
  %58 = load i32, ptr %57, align 4
  %59 = icmp eq i32 %58, 2
  br i1 %59, label %60, label %69

60:                                               ; preds = %55
  %61 = icmp sgt i32 %.070, %.081147
  br i1 %61, label %67, label %62

62:                                               ; preds = %60
  %63 = icmp eq i32 %.070, %.081147
  br i1 %63, label %64, label %78

64:                                               ; preds = %62
  %65 = load ptr, ptr %10, align 8
  %66 = tail call zeroext i1 %65(i64 noundef %52, i64 noundef %.085146) #15
  br i1 %66, label %67, label %78

67:                                               ; preds = %64, %60
  %68 = trunc nsw i64 %indvars.iv155 to i32
  br label %78

69:                                               ; preds = %55
  %70 = icmp sgt i32 %.070, %.091144
  br i1 %70, label %76, label %71

71:                                               ; preds = %69
  %72 = icmp eq i32 %.070, %.091144
  br i1 %72, label %73, label %78

73:                                               ; preds = %71
  %74 = load ptr, ptr %10, align 8
  %75 = tail call zeroext i1 %74(i64 noundef %52, i64 noundef %.088145) #15
  br i1 %75, label %76, label %78

76:                                               ; preds = %73, %69
  %77 = trunc nsw i64 %indvars.iv155 to i32
  br label %78

78:                                               ; preds = %49, %71, %73, %76, %62, %64, %67
  %.296.ph = phi i32 [ %.094143, %71 ], [ %.094143, %73 ], [ %77, %76 ], [ %.094143, %62 ], [ %.094143, %64 ], [ %.094143, %67 ], [ %.094143, %49 ]
  %.192.ph = phi i32 [ %.091144, %71 ], [ %.091144, %73 ], [ %.070, %76 ], [ %.091144, %62 ], [ %.091144, %64 ], [ %.091144, %67 ], [ %.091144, %49 ]
  %.189.ph = phi i64 [ %.088145, %71 ], [ %.088145, %73 ], [ %52, %76 ], [ %.088145, %62 ], [ %.088145, %64 ], [ %.088145, %67 ], [ %.088145, %49 ]
  %.186.ph = phi i64 [ %.085146, %71 ], [ %.085146, %73 ], [ %.085146, %76 ], [ %.085146, %62 ], [ %.085146, %64 ], [ %52, %67 ], [ %.085146, %49 ]
  %.283.ph = phi i32 [ %.081147, %71 ], [ %.081147, %73 ], [ %.081147, %76 ], [ %.081147, %62 ], [ %.081147, %64 ], [ %.070, %67 ], [ %.081147, %49 ]
  %.279.ph = phi i32 [ %.077148, %71 ], [ %.077148, %73 ], [ %.077148, %76 ], [ %.077148, %62 ], [ %.077148, %64 ], [ %68, %67 ], [ %.077148, %49 ]
  %indvars.iv.next156 = add nsw i64 %indvars.iv155, 1
  %79 = icmp slt i64 %indvars.iv.next156, %21
  br i1 %79, label %37, label %80, !llvm.loop !10

80:                                               ; preds = %78
  %81 = icmp slt i32 %.283.ph, 0
  br i1 %81, label %82, label %83

82:                                               ; preds = %80
  %.val = load ptr, ptr %0, align 8
  tail call fastcc void @SimpleLruWaitIO(ptr %.val, i32 noundef %.296.ph)
  br label %.backedge

83:                                               ; preds = %80
  %84 = load ptr, ptr %11, align 8
  %85 = sext i32 %.279.ph to i64
  %86 = getelementptr inbounds i8, ptr %84, i64 %85
  %87 = load i8, ptr %86, align 1, !range !4, !noundef !5
  %88 = trunc nuw i8 %87 to i1
  br i1 %88, label %89, label %.thread

89:                                               ; preds = %83
  tail call fastcc void @SlruInternalWritePage(ptr noundef nonnull %0, i32 noundef %.279.ph, ptr noundef null)
  br label %.backedge

.backedge:                                        ; preds = %89, %82
  br label %12

.thread.loopexit:                                 ; preds = %37
  %90 = trunc nsw i64 %indvars.iv155 to i32
  br label %.thread

.thread.loopexit150:                              ; preds = %25
  %91 = trunc nsw i64 %indvars.iv to i32
  br label %.thread

.thread:                                          ; preds = %83, %.thread.loopexit150, %.thread.loopexit
  %.2.ph = phi i32 [ %90, %.thread.loopexit ], [ %91, %.thread.loopexit150 ], [ %.279.ph, %83 ]
  ret i32 %.2.ph
}